; Function Attrs: mustprogress uwtable
define void @_ZN13duDisplayList6vertexEfffj(ptr nocapture noundef nonnull align 8 dereferenceable(41) %0, float noundef %1, float noundef %2, float noundef %3, i32 noundef %4) unnamed_addr #4 align 2 {
  %6 = getelementptr inbounds i8, ptr %0, i64 24
  %7 = load i32, ptr %6, align 8
  %8 = add nsw i32 %7, 1
  %9 = getelementptr inbounds i8, ptr %0, i64 28
  %10 = load i32, ptr %9, align 4
  %.not = icmp slt i32 %8, %10
  br i1 %.not, label %35, label %11

11:                                               ; preds = %5
  %12 = shl nsw i32 %10, 1
  %13 = mul nsw i32 %10, 6
  %14 = sext i32 %13 to i64
  %15 = icmp slt i32 %10, 0
  %16 = shl nsw i64 %14, 2
  %17 = select i1 %15, i64 -1, i64 %16
  %18 = tail call noalias noundef nonnull ptr @_Znam(i64 noundef %17) #16
  %.not.i = icmp eq i32 %7, 0
  %.phi.trans.insert.i = getelementptr inbounds i8, ptr %0, i64 8
  %.pre.i = load ptr, ptr %.phi.trans.insert.i, align 8
  br i1 %.not.i, label %._crit_edge.i, label %19

19:                                               ; preds = %11
  %20 = sext i32 %7 to i64
  %21 = mul nsw i64 %20, 12
  tail call void @llvm.memcpy.p0.p0.i64(ptr nonnull align 4 %18, ptr align 4 %.pre.i, i64 %21, i1 false)
  br label %._crit_edge.i

._crit_edge.i:                                    ; preds = %19, %11
  %22 = icmp eq ptr %.pre.i, null
  br i1 %22, label %24, label %23

23:                                               ; preds = %._crit_edge.i
  tail call void @_ZdaPv(ptr noundef nonnull %.pre.i) #17
  %.pre11.i = load i32, ptr %6, align 8
  br label %24

24:                                               ; preds = %23, %._crit_edge.i
  %25 = phi i32 [ %.pre11.i, %23 ], [ %7, %._crit_edge.i ]
  store ptr %18, ptr %.phi.trans.insert.i, align 8
  %26 = zext nneg i32 %12 to i64
  %27 = shl nuw nsw i64 %26, 2
  %28 = select i1 %15, i64 -1, i64 %27
  %29 = tail call noalias noundef nonnull ptr @_Znam(i64 noundef %28) #16
  %.not10.i = icmp eq i32 %25, 0
  %.phi.trans.insert13.i = getelementptr inbounds i8, ptr %0, i64 16
  %.pre14.i = load ptr, ptr %.phi.trans.insert13.i, align 8
  br i1 %.not10.i, label %._crit_edge12.i, label %30

30:                                               ; preds = %24
  %31 = sext i32 %25 to i64
  %32 = shl nsw i64 %31, 2
  tail call void @llvm.memcpy.p0.p0.i64(ptr nonnull align 4 %29, ptr align 4 %.pre14.i, i64 %32, i1 false)
  br label %._crit_edge12.i

._crit_edge12.i:                                  ; preds = %30, %24
  %33 = icmp eq ptr %.pre14.i, null
  br i1 %33, label %_ZN13duDisplayList6resizeEi.exit, label %34

34:                                               ; preds = %._crit_edge12.i
  tail call void @_ZdaPv(ptr noundef nonnull %.pre14.i) #17
  %.pre.pre = load i32, ptr %6, align 8
  br label %_ZN13duDisplayList6resizeEi.exit

_ZN13duDisplayList6resizeEi.exit:                 ; preds = %._crit_edge12.i, %34
  %.pre = phi i32 [ %25, %._crit_edge12.i ], [ %.pre.pre, %34 ]
  store ptr %29, ptr %.phi.trans.insert13.i, align 8
  store i32 %12, ptr %9, align 4
  br label %35

35:                                               ; preds = %_ZN13duDisplayList6resizeEi.exit, %5
  %36 = phi i32 [ %.pre, %_ZN13duDisplayList6resizeEi.exit ], [ %7, %5 ]
  %37 = getelementptr inbounds i8, ptr %0, i64 8
  %38 = load ptr, ptr %37, align 8
  %39 = mul nsw i32 %36, 3
  %40 = sext i32 %39 to i64
  %41 = getelementptr inbounds float, ptr %38, i64 %40
  store float %1, ptr %41, align 4
  %42 = getelementptr inbounds i8, ptr %41, i64 4
  store float %2, ptr %42, align 4
  %43 = getelementptr inbounds i8, ptr %41, i64 8
  store float %3, ptr %43, align 4
  %44 = getelementptr inbounds i8, ptr %0, i64 16
  %45 = load ptr, ptr %44, align 8
  %46 = load i32, ptr %6, align 8
  %47 = sext i32 %46 to i64
  %48 = getelementptr inbounds i32, ptr %45, i64 %47
  store i32 %4, ptr %48, align 4
  %49 = load i32, ptr %6, align 8
  %50 = add nsw i32 %49, 1
  store i32 %50, ptr %6, align 8
  ret void
}